GAS LISTING /var/folders/x6/17svhgds0x7889jbwj0rb4y80000gp/T//cc5muElt.s 			page 1


   1               		.file	"osccal.c"
   2               	__SREG__ = 0x3f
   3               	__SP_H__ = 0x3e
   4               	__SP_L__ = 0x3d
   5               	__CCP__  = 0x34
   6               	__tmp_reg__ = 0
   7               	__zero_reg__ = 1
   8               		.global __do_copy_data
   9               		.global __do_clear_bss
  10               		.text
  11               	.global	calibrateOscillator
  12               		.type	calibrateOscillator, @function
  13               	calibrateOscillator:
  14 0000 FF92      		push r15
  15 0002 0F93      		push r16
  16 0004 1F93      		push r17
  17 0006 CF93      		push r28
  18 0008 DF93      		push r29
  19               	/* prologue: function */
  20               	/* frame size = 0 */
  21 000a 00E0      		ldi r16,lo8(0)
  22 000c 80E8      		ldi r24,lo8(-128)
  23 000e F82E      		mov r15,r24
  24 0010 C0E0      		ldi r28,lo8(0)
  25 0012 D0E0      		ldi r29,hi8(0)
  26               	.L4:
  27 0014 1F2D      		mov r17,r15
  28 0016 100F      		add r17,r16
  29 0018 11BF      		out 81-32,r17
  30 001a 00D0      		rcall usbMeasureFrameLength
  31 001c 9C01      		movw r18,r24
  32 001e 89E0      		ldi r24,hi8(2356)
  33 0020 2433      		cpi r18,lo8(2356)
  34 0022 3807      		cpc r19,r24
  35 0024 04F0      		brlt .L2
  36 0026 102F      		mov r17,r16
  37               	.L2:
  38 0028 F694      		lsr r15
  39 002a 2196      		adiw r28,1
  40 002c C830      		cpi r28,8
  41 002e D105      		cpc r29,__zero_reg__
  42 0030 01F0      		breq .L3
  43 0032 012F      		mov r16,r17
  44 0034 00C0      		rjmp .L4
  45               	.L3:
  46 0036 1150      		subi r17,lo8(-(-1))
  47 0038 11BF      		out 81-32,r17
  48 003a 1F5F      		subi r17,lo8(-(1))
  49 003c 012F      		mov r16,r17
  50 003e E901      		movw r28,r18
  51 0040 00C0      		rjmp .L5
  52               	.L8:
  53 0042 00D0      		rcall usbMeasureFrameLength
  54 0044 8453      		subi r24,lo8(-(-2356))
  55 0046 9940      		sbci r25,hi8(-(-2356))
  56 0048 97FF      		sbrs r25,7
  57 004a 00C0      		rjmp .L6
GAS LISTING /var/folders/x6/17svhgds0x7889jbwj0rb4y80000gp/T//cc5muElt.s 			page 2


  58 004c 9095      		com r25
  59 004e 8195      		neg r24
  60 0050 9F4F      		sbci r25,lo8(-1)
  61               	.L6:
  62 0052 8C17      		cp r24,r28
  63 0054 9D07      		cpc r25,r29
  64 0056 04F4      		brge .L7
  65 0058 01B7      		in r16,81-32
  66 005a EC01      		movw r28,r24
  67               	.L7:
  68 005c 81B7      		in r24,81-32
  69 005e 8F5F      		subi r24,lo8(-(1))
  70 0060 81BF      		out 81-32,r24
  71               	.L5:
  72 0062 21B7      		in r18,81-32
  73 0064 30E0      		ldi r19,lo8(0)
  74 0066 812F      		mov r24,r17
  75 0068 90E0      		ldi r25,lo8(0)
  76 006a 0196      		adiw r24,1
  77 006c 8217      		cp r24,r18
  78 006e 9307      		cpc r25,r19
  79 0070 04F4      		brge .L8
  80 0072 01BF      		out 81-32,r16
  81               	/* epilogue start */
  82 0074 DF91      		pop r29
  83 0076 CF91      		pop r28
  84 0078 1F91      		pop r17
  85 007a 0F91      		pop r16
  86 007c FF90      		pop r15
  87 007e 0895      		ret
  88               		.size	calibrateOscillator, .-calibrateOscillator
GAS LISTING /var/folders/x6/17svhgds0x7889jbwj0rb4y80000gp/T//cc5muElt.s 			page 3


DEFINED SYMBOLS
                            *ABS*:00000000 osccal.c
/var/folders/x6/17svhgds0x7889jbwj0rb4y80000gp/T//cc5muElt.s:2      *ABS*:0000003f __SREG__
/var/folders/x6/17svhgds0x7889jbwj0rb4y80000gp/T//cc5muElt.s:3      *ABS*:0000003e __SP_H__
/var/folders/x6/17svhgds0x7889jbwj0rb4y80000gp/T//cc5muElt.s:4      *ABS*:0000003d __SP_L__
/var/folders/x6/17svhgds0x7889jbwj0rb4y80000gp/T//cc5muElt.s:5      *ABS*:00000034 __CCP__
/var/folders/x6/17svhgds0x7889jbwj0rb4y80000gp/T//cc5muElt.s:6      *ABS*:00000000 __tmp_reg__
/var/folders/x6/17svhgds0x7889jbwj0rb4y80000gp/T//cc5muElt.s:7      *ABS*:00000001 __zero_reg__
/var/folders/x6/17svhgds0x7889jbwj0rb4y80000gp/T//cc5muElt.s:13     .text:00000000 calibrateOscillator

UNDEFINED SYMBOLS
__do_copy_data
__do_clear_bss
usbMeasureFrameLength
